target datalayout = "e-m:e-p270:32:32-p271:32:32-p272:64:64-i64:64-i128:128-f80:128-n8:16:32:64-S128"
target triple = "x86_64-pc-linux-gnu"

%class.elapsedTimer = type <{ i64, i64, i8, [7 x i8] }>
%class.PSAdaptiveSizePolicy = type { %class.AdaptiveSizePolicy, ptr, ptr, ptr, ptr, ptr, double, i64, i64, i32, i32, i32, i32 }
%class.AdaptiveSizePolicy = type { ptr, double, i64, i64, i64, %class.GCOverheadChecker, ptr, ptr, ptr, ptr, ptr, ptr, ptr, ptr, ptr, ptr, ptr, ptr, ptr, ptr, double, double, double, i8, i32, i32, i32, i32, i8, i8, i8, i32, i32, i64, i64 }
%class.GCOverheadChecker = type { i8, i32 }
%class.AdaptivePaddedAverage = type { %class.AdaptiveWeightedAverage, float, float, i32 }
%class.AdaptiveWeightedAverage = type { float, i32, i32, i8, float }

@AdaptiveTimeWeight = external global i32, align 4
@PausePadding = external global i32, align 4
@AdaptiveSizePolicyWeight = external global i32, align 4
@PromotedPadding = external global i32, align 4
@YoungGenerationSizeSupplement = external global i32, align 4
@TenuredGenerationSizeSupplement = external global i32, align 4
@_ZN18AdaptiveSizePolicy12_major_timerE = external global %class.elapsedTimer, align 8

; Function Attrs: mustprogress nounwind uwtable
define linkonce_odr hidden void @_ZN30AdaptivePaddedNoZeroDevAverageC2Ejj(ptr noundef nonnull align 4 dereferenceable(32) %0, i32 noundef %1, i32 noundef %2) unnamed_addr #1 comdat align 2 {
  %4 = alloca ptr, align 8
  %5 = alloca i32, align 4
  %6 = alloca i32, align 4
  store ptr %0, ptr %4, align 8
  store i32 %1, ptr %5, align 4
  store i32 %2, ptr %6, align 4
  %7 = load ptr, ptr %4, align 8
  %8 = load i32, ptr %5, align 4
  %9 = load i32, ptr %6, align 4
  call void @_ZN21AdaptivePaddedAverageC2Ejj(ptr noundef nonnull align 4 dereferenceable(32) %7, i32 noundef %8, i32 noundef %9)
  ret void
}

; Function Attrs: mustprogress nounwind uwtable
define linkonce_odr hidden void @_ZN23AdaptiveWeightedAverageC2Ejf(ptr noundef nonnull align 4 dereferenceable(20) %0, i32 noundef %1, float noundef %2) unnamed_addr #1 comdat align 2 {
  %4 = alloca ptr, align 8
  %5 = alloca i32, align 4
  %6 = alloca float, align 4
  store ptr %0, ptr %4, align 8
  store i32 %1, ptr %5, align 4
  store float %2, ptr %6, align 4
  %7 = load ptr, ptr %4, align 8
  %8 = getelementptr inbounds %class.AdaptiveWeightedAverage, ptr %7, i32 0, i32 0
  %9 = load float, ptr %6, align 4
  store float %9, ptr %8, align 4
  %10 = getelementptr inbounds %class.AdaptiveWeightedAverage, ptr %7, i32 0, i32 1
  store i32 0, ptr %10, align 4
  %11 = getelementptr inbounds %class.AdaptiveWeightedAverage, ptr %7, i32 0, i32 2
  %12 = load i32, ptr %5, align 4
  store i32 %12, ptr %11, align 4
  %13 = getelementptr inbounds %class.AdaptiveWeightedAverage, ptr %7, i32 0, i32 3
  store i8 0, ptr %13, align 4
  %14 = getelementptr inbounds %class.AdaptiveWeightedAverage, ptr %7, i32 0, i32 4
  store float 0.000000e+00, ptr %14, align 4
  ret void
}

; Function Attrs: mustprogress nounwind uwtable
define linkonce_odr hidden void @_ZN21AdaptivePaddedAverageC2Ejj(ptr noundef nonnull align 4 dereferenceable(32) %0, i32 noundef %1, i32 noundef %2) unnamed_addr #1 comdat align 2 {
  %4 = alloca ptr, align 8
  %5 = alloca i32, align 4
  %6 = alloca i32, align 4
  store ptr %0, ptr %4, align 8
  store i32 %1, ptr %5, align 4
  store i32 %2, ptr %6, align 4
  %7 = load ptr, ptr %4, align 8
  %8 = load i32, ptr %5, align 4
  call void @_ZN23AdaptiveWeightedAverageC2Ejf(ptr noundef nonnull align 4 dereferenceable(20) %7, i32 noundef %8, float noundef 0.000000e+00)
  %9 = getelementptr inbounds %class.AdaptivePaddedAverage, ptr %7, i32 0, i32 1
  store float 0.000000e+00, ptr %9, align 4
  %10 = getelementptr inbounds %class.AdaptivePaddedAverage, ptr %7, i32 0, i32 2
  store float 0.000000e+00, ptr %10, align 4
  %11 = getelementptr inbounds %class.AdaptivePaddedAverage, ptr %7, i32 0, i32 3
  %12 = load i32, ptr %6, align 4
  store i32 %12, ptr %11, align 4
  ret void
}

; Function Attrs: mustprogress nounwind uwtable
define hidden void @_ZN20PSAdaptiveSizePolicyC2Emmmmdj(ptr noundef nonnull align 8 dereferenceable(312) %0, i64 noundef %1, i64 noundef %2, i64 noundef %3, i64 noundef %4, double noundef %5, i32 noundef %6) unnamed_addr #1 align 2 {
  %8 = alloca i64, align 8
  %9 = alloca i8, align 1
  %10 = alloca i64, align 8
  %11 = alloca i8, align 1
  %12 = alloca i64, align 8
  %13 = alloca i8, align 1
  %14 = alloca i64, align 8
  %15 = alloca i8, align 1
  %16 = alloca i64, align 8
  %17 = alloca i8, align 1
  %18 = alloca i64, align 8
  %19 = alloca i64, align 8
  %20 = alloca i64, align 8
  %21 = alloca i64, align 8
  %22 = alloca i64, align 8
  %23 = alloca ptr, align 8
  %24 = alloca i64, align 8
  %25 = alloca i64, align 8
  %26 = alloca i64, align 8
  %27 = alloca i64, align 8
  %28 = alloca double, align 8
  %29 = alloca i32, align 4
  store ptr %0, ptr %23, align 8
  store i64 %1, ptr %24, align 8
  store i64 %2, ptr %25, align 8
  store i64 %3, ptr %26, align 8
  store i64 %4, ptr %27, align 8
  store double %5, ptr %28, align 8
  store i32 %6, ptr %29, align 4
  %30 = load ptr, ptr %23, align 8
  %31 = load i64, ptr %24, align 8
  %32 = load i64, ptr %25, align 8
  %33 = load i64, ptr %26, align 8
  %34 = load double, ptr %28, align 8
  %35 = load i32, ptr %29, align 4
  call void @_ZN18AdaptiveSizePolicyC2Emmmdj(ptr noundef nonnull align 8 dereferenceable(232) %30, i64 noundef %31, i64 noundef %32, i64 noundef %33, double noundef %34, i32 noundef %35)
  store ptr getelementptr inbounds inrange(-16, 80) ({ [12 x ptr] }, ptr @_ZTV20PSAdaptiveSizePolicy, i32 0, i32 0, i32 2), ptr %30, align 8
  %36 = getelementptr inbounds %class.PSAdaptiveSizePolicy, ptr %30, i32 0, i32 1
  store i64 32, ptr %18, align 8
  %37 = load i64, ptr %18, align 8
  store i64 %37, ptr %16, align 8
  store i8 5, ptr %17, align 1
  %38 = load i64, ptr %16, align 8
  %39 = load i8, ptr %17, align 1
  %40 = call noundef ptr @_Z12AllocateHeapm8MEMFLAGSN17AllocFailStrategy13AllocFailEnumE(i64 noundef %38, i8 noundef zeroext %39, i32 noundef 0) #4
  %41 = load i32, ptr @AdaptiveTimeWeight, align 4
  %42 = load i32, ptr @PausePadding, align 4
  call void @_ZN21AdaptivePaddedAverageC2Ejj(ptr noundef nonnull align 4 dereferenceable(32) %40, i32 noundef %41, i32 noundef %42)
  store ptr %40, ptr %36, align 8
  %43 = getelementptr inbounds %class.PSAdaptiveSizePolicy, ptr %30, i32 0, i32 2
  store i64 20, ptr %19, align 8
  %44 = load i64, ptr %19, align 8
  store i64 %44, ptr %14, align 8
  store i8 5, ptr %15, align 1
  %45 = load i64, ptr %14, align 8
  %46 = load i8, ptr %15, align 1
  %47 = call noundef ptr @_Z12AllocateHeapm8MEMFLAGSN17AllocFailStrategy13AllocFailEnumE(i64 noundef %45, i8 noundef zeroext %46, i32 noundef 0) #4
  %48 = load i32, ptr @AdaptiveSizePolicyWeight, align 4
  call void @_ZN23AdaptiveWeightedAverageC2Ejf(ptr noundef nonnull align 4 dereferenceable(20) %47, i32 noundef %48, float noundef 0.000000e+00)
  store ptr %47, ptr %43, align 8
  %49 = getelementptr inbounds %class.PSAdaptiveSizePolicy, ptr %30, i32 0, i32 3
  store i64 32, ptr %20, align 8
  %50 = load i64, ptr %20, align 8
  store i64 %50, ptr %12, align 8
  store i8 5, ptr %13, align 1
  %51 = load i64, ptr %12, align 8
  %52 = load i8, ptr %13, align 1
  %53 = call noundef ptr @_Z12AllocateHeapm8MEMFLAGSN17AllocFailStrategy13AllocFailEnumE(i64 noundef %51, i8 noundef zeroext %52, i32 noundef 0) #4
  %54 = load i32, ptr @AdaptiveSizePolicyWeight, align 4
  %55 = load i32, ptr @PromotedPadding, align 4
  call void @_ZN30AdaptivePaddedNoZeroDevAverageC2Ejj(ptr noundef nonnull align 4 dereferenceable(32) %53, i32 noundef %54, i32 noundef %55)
  store ptr %53, ptr %49, align 8
  %56 = getelementptr inbounds %class.PSAdaptiveSizePolicy, ptr %30, i32 0, i32 4
  store i64 88, ptr %21, align 8
  %57 = load i64, ptr %21, align 8
  store i64 %57, ptr %10, align 8
  store i8 5, ptr %11, align 1
  %58 = load i64, ptr %10, align 8
  %59 = load i8, ptr %11, align 1
  %60 = call noundef ptr @_Z12AllocateHeapm8MEMFLAGSN17AllocFailStrategy13AllocFailEnumE(i64 noundef %58, i8 noundef zeroext %59, i32 noundef 0) #4
  %61 = load i32, ptr @AdaptiveSizePolicyWeight, align 4
  call void @_ZN20LinearLeastSquareFitC1Ej(ptr noundef nonnull align 8 dereferenceable(88) %60, i32 noundef %61)
  store ptr %60, ptr %56, align 8
  %62 = getelementptr inbounds %class.PSAdaptiveSizePolicy, ptr %30, i32 0, i32 5
  store i64 88, ptr %22, align 8
  %63 = load i64, ptr %22, align 8
  store i64 %63, ptr %8, align 8
  store i8 5, ptr %9, align 1
  %64 = load i64, ptr %8, align 8
  %65 = load i8, ptr %9, align 1
  %66 = call noundef ptr @_Z12AllocateHeapm8MEMFLAGSN17AllocFailStrategy13AllocFailEnumE(i64 noundef %64, i8 noundef zeroext %65, i32 noundef 0) #4
  %67 = load i32, ptr @AdaptiveSizePolicyWeight, align 4
  call void @_ZN20LinearLeastSquareFitC1Ej(ptr noundef nonnull align 8 dereferenceable(88) %66, i32 noundef %67)
  store ptr %66, ptr %62, align 8
  %68 = getelementptr inbounds %class.PSAdaptiveSizePolicy, ptr %30, i32 0, i32 6
  store double 0.000000e+00, ptr %68, align 8
  %69 = getelementptr inbounds %class.PSAdaptiveSizePolicy, ptr %30, i32 0, i32 7
  %70 = load i64, ptr %27, align 8
  store i64 %70, ptr %69, align 8
  %71 = getelementptr inbounds %class.PSAdaptiveSizePolicy, ptr %30, i32 0, i32 8
  %72 = load i64, ptr %25, align 8
  store i64 %72, ptr %71, align 8
  %73 = getelementptr inbounds %class.PSAdaptiveSizePolicy, ptr %30, i32 0, i32 9
  store i32 0, ptr %73, align 8
  %74 = getelementptr inbounds %class.PSAdaptiveSizePolicy, ptr %30, i32 0, i32 10
  store i32 0, ptr %74, align 4
  %75 = getelementptr inbounds %class.PSAdaptiveSizePolicy, ptr %30, i32 0, i32 11
  %76 = load i32, ptr @YoungGenerationSizeSupplement, align 4
  store i32 %76, ptr %75, align 8
  %77 = getelementptr inbounds %class.PSAdaptiveSizePolicy, ptr %30, i32 0, i32 12
  %78 = load i32, ptr @TenuredGenerationSizeSupplement, align 4
  store i32 %78, ptr %77, align 4
  call void @_ZN12elapsedTimer5startEv(ptr noundef nonnull align 8 dereferenceable(17) @_ZN18AdaptiveSizePolicy12_major_timerE)
  ret void
}