; Function Attrs: mustprogress nounwind uwtable
define hidden void @_ZN20PSAdaptiveSizePolicyC2Emmmmdj(ptr noundef nonnull align 8 dereferenceable(312) %0, i64 noundef %1, i64 noundef %2, i64 noundef %3, i64 noundef %4, double noundef %5, i32 noundef %6) unnamed_addr #0 align 2 {
  tail call void @_ZN18AdaptiveSizePolicyC2Emmmdj(ptr noundef nonnull align 8 dereferenceable(232) %0, i64 noundef %1, i64 noundef %2, i64 noundef %3, double noundef %5, i32 noundef %6) #7
  store ptr getelementptr inbounds inrange(-16, 80) (i8, ptr @_ZTV20PSAdaptiveSizePolicy, i64 16), ptr %0, align 8
  %8 = getelementptr inbounds i8, ptr %0, i64 232
  %9 = tail call noundef ptr @_Z12AllocateHeapm8MEMFLAGSN17AllocFailStrategy13AllocFailEnumE(i64 noundef 32, i8 noundef zeroext 5, i32 noundef 0) #7
  %10 = load i32, ptr @AdaptiveTimeWeight, align 4
  %11 = load i32, ptr @PausePadding, align 4
  store float 0.000000e+00, ptr %9, align 4
  %12 = getelementptr inbounds i8, ptr %9, i64 4
  store i32 0, ptr %12, align 4
  %13 = getelementptr inbounds i8, ptr %9, i64 8
  store i32 %10, ptr %13, align 4
  %14 = getelementptr inbounds i8, ptr %9, i64 12
  store i8 0, ptr %14, align 4
  %15 = getelementptr inbounds i8, ptr %9, i64 16
  store <2 x float> zeroinitializer, ptr %15, align 4
  %16 = getelementptr inbounds i8, ptr %9, i64 24
  store float 0.000000e+00, ptr %16, align 4
  %17 = getelementptr inbounds i8, ptr %9, i64 28
  store i32 %11, ptr %17, align 4
  store ptr %9, ptr %8, align 8
  %18 = getelementptr inbounds i8, ptr %0, i64 240
  %19 = tail call noundef ptr @_Z12AllocateHeapm8MEMFLAGSN17AllocFailStrategy13AllocFailEnumE(i64 noundef 20, i8 noundef zeroext 5, i32 noundef 0) #7
  %20 = load i32, ptr @AdaptiveSizePolicyWeight, align 4
  store float 0.000000e+00, ptr %19, align 4
  %21 = getelementptr inbounds i8, ptr %19, i64 4
  store i32 0, ptr %21, align 4
  %22 = getelementptr inbounds i8, ptr %19, i64 8
  store i32 %20, ptr %22, align 4
  %23 = getelementptr inbounds i8, ptr %19, i64 12
  store i8 0, ptr %23, align 4
  %24 = getelementptr inbounds i8, ptr %19, i64 16
  store float 0.000000e+00, ptr %24, align 4
  store ptr %19, ptr %18, align 8
  %25 = getelementptr inbounds i8, ptr %0, i64 248
  %26 = tail call noundef ptr @_Z12AllocateHeapm8MEMFLAGSN17AllocFailStrategy13AllocFailEnumE(i64 noundef 32, i8 noundef zeroext 5, i32 noundef 0) #7
  %27 = load i32, ptr @AdaptiveSizePolicyWeight, align 4
  %28 = load i32, ptr @PromotedPadding, align 4
  store float 0.000000e+00, ptr %26, align 4
  %29 = getelementptr inbounds i8, ptr %26, i64 4
  store i32 0, ptr %29, align 4
  %30 = getelementptr inbounds i8, ptr %26, i64 8
  store i32 %27, ptr %30, align 4
  %31 = getelementptr inbounds i8, ptr %26, i64 12
  store i8 0, ptr %31, align 4
  %32 = getelementptr inbounds i8, ptr %26, i64 16
  store <2 x float> zeroinitializer, ptr %32, align 4
  %33 = getelementptr inbounds i8, ptr %26, i64 24
  store float 0.000000e+00, ptr %33, align 4
  %34 = getelementptr inbounds i8, ptr %26, i64 28
  store i32 %28, ptr %34, align 4
  store ptr %26, ptr %25, align 8
  %35 = getelementptr inbounds i8, ptr %0, i64 256
  %36 = tail call noundef ptr @_Z12AllocateHeapm8MEMFLAGSN17AllocFailStrategy13AllocFailEnumE(i64 noundef 88, i8 noundef zeroext 5, i32 noundef 0) #7
  %37 = load i32, ptr @AdaptiveSizePolicyWeight, align 4
  tail call void @_ZN20LinearLeastSquareFitC1Ej(ptr noundef nonnull align 8 dereferenceable(88) %36, i32 noundef %37) #7
  store ptr %36, ptr %35, align 8
  %38 = getelementptr inbounds i8, ptr %0, i64 264
  %39 = tail call noundef ptr @_Z12AllocateHeapm8MEMFLAGSN17AllocFailStrategy13AllocFailEnumE(i64 noundef 88, i8 noundef zeroext 5, i32 noundef 0) #7
  %40 = load i32, ptr @AdaptiveSizePolicyWeight, align 4
  tail call void @_ZN20LinearLeastSquareFitC1Ej(ptr noundef nonnull align 8 dereferenceable(88) %39, i32 noundef %40) #7
  store ptr %39, ptr %38, align 8
  %41 = getelementptr inbounds i8, ptr %0, i64 272
  store double 0.000000e+00, ptr %41, align 8
  %42 = getelementptr inbounds i8, ptr %0, i64 280
  store i64 %4, ptr %42, align 8
  %43 = getelementptr inbounds i8, ptr %0, i64 288
  store i64 %2, ptr %43, align 8
  %44 = getelementptr inbounds i8, ptr %0, i64 296
  store i32 0, ptr %44, align 8
  %45 = getelementptr inbounds i8, ptr %0, i64 300
  store i32 0, ptr %45, align 4
  %46 = getelementptr inbounds i8, ptr %0, i64 304
  %47 = load i32, ptr @YoungGenerationSizeSupplement, align 4
  store i32 %47, ptr %46, align 8
  %48 = getelementptr inbounds i8, ptr %0, i64 308
  %49 = load i32, ptr @TenuredGenerationSizeSupplement, align 4
  store i32 %49, ptr %48, align 4
  tail call void @_ZN12elapsedTimer5startEv(ptr noundef nonnull align 8 dereferenceable(17) @_ZN18AdaptiveSizePolicy12_major_timerE) #7
  ret void
}